; Function Attrs: mustprogress sspstrong uwtable
define void @_ZN4FLAC8Metadata9Prototype5clearEv(ptr nocapture noundef nonnull align 8 dereferenceable(17) %this) unnamed_addr #0 align 2 {
entry:
  %object_ = getelementptr inbounds i8, ptr %this, i64 8
  %0 = load ptr, ptr %object_, align 8
  %cmp.not = icmp eq ptr %0, null
  br i1 %cmp.not, label %if.end, label %land.lhs.true

land.lhs.true:                                    ; preds = %entry
  %is_reference_ = getelementptr inbounds i8, ptr %this, i64 16
  %1 = load i8, ptr %is_reference_, align 8
  %2 = and i8 %1, 1
  %tobool.not = icmp eq i8 %2, 0
  br i1 %tobool.not, label %if.then, label %if.end

if.then:                                          ; preds = %land.lhs.true
  tail call void @FLAC__metadata_object_delete(ptr noundef nonnull %0)
  br label %if.end

if.end:                                           ; preds = %if.then, %land.lhs.true, %entry
  store ptr null, ptr %object_, align 8
  ret void
}